target datalayout = "e-m:e-p270:32:32-p271:32:32-p272:64:64-i64:64-i128:128-f80:128-n8:16:32:64-S128"
target triple = "x86_64-pc-linux-gnu"

; Function Attrs: nounwind null_pointer_is_valid sspstrong uwtable
define internal zeroext i1 @is_data_shifting_command(i8 noundef zeroext %0) #5 {
  %2 = alloca i1, align 1
  %3 = alloca i8, align 1
  store i8 %0, ptr %3, align 1
  %4 = load i8, ptr %3, align 1
  %5 = zext i8 %4 to i32
  switch i32 %5, label %7 [
    i32 0, label %6
    i32 1, label %6
    i32 2, label %6
    i32 3, label %6
    i32 4, label %6
    i32 5, label %6
    i32 6, label %6
    i32 7, label %6
    i32 8, label %6
    i32 9, label %6
    i32 10, label %6
    i32 11, label %6
    i32 12, label %6
    i32 13, label %6
    i32 14, label %6
    i32 15, label %6
    i32 64, label %6
    i32 65, label %6
    i32 66, label %6
    i32 67, label %6
    i32 68, label %6
    i32 69, label %6
    i32 70, label %6
    i32 71, label %6
    i32 72, label %6
    i32 73, label %6
    i32 76, label %6
    i32 77, label %6
    i32 80, label %6
    i32 81, label %6
    i32 82, label %6
    i32 83, label %6
    i32 84, label %6
    i32 85, label %6
    i32 86, label %6
    i32 87, label %6
    i32 88, label %6
    i32 89, label %6
    i32 92, label %6
    i32 93, label %6
    i32 96, label %6
    i32 97, label %6
    i32 100, label %6
    i32 101, label %6
    i32 104, label %6
    i32 105, label %6
    i32 108, label %6
    i32 109, label %6
    i32 112, label %6
    i32 113, label %6
    i32 116, label %6
    i32 117, label %6
    i32 120, label %6
    i32 121, label %6
    i32 124, label %6
    i32 125, label %6
  ]

6:                                                ; preds = %1, %1, %1, %1, %1, %1, %1, %1, %1, %1, %1, %1, %1, %1, %1, %1, %1, %1, %1, %1, %1, %1, %1, %1, %1, %1, %1, %1, %1, %1, %1, %1, %1, %1, %1, %1, %1, %1, %1, %1, %1, %1, %1, %1, %1, %1, %1, %1, %1, %1, %1, %1, %1, %1, %1, %1
  store i1 false, ptr %2, align 1
  br label %12

7:                                                ; preds = %1
  %8 = load i8, ptr %3, align 1
  %9 = zext i8 %8 to i32
  %10 = and i32 %9, 128
  %11 = icmp eq i32 %10, 0
  store i1 %11, ptr %2, align 1
  br label %12

12:                                               ; preds = %7, %6
  %13 = load i1, ptr %2, align 1
  ret i1 %13
}