; Function Attrs: mustprogress nofree norecurse nosync nounwind null_pointer_is_valid sspstrong willreturn memory(none) uwtable
define internal fastcc noundef zeroext i1 @is_data_shifting_command(i8 noundef zeroext %0) unnamed_addr #5 {
  switch i8 %0, label %2 [
    i8 0, label %4
    i8 1, label %4
    i8 2, label %4
    i8 3, label %4
    i8 4, label %4
    i8 5, label %4
    i8 6, label %4
    i8 7, label %4
    i8 8, label %4
    i8 9, label %4
    i8 10, label %4
    i8 11, label %4
    i8 12, label %4
    i8 13, label %4
    i8 14, label %4
    i8 15, label %4
    i8 64, label %4
    i8 65, label %4
    i8 66, label %4
    i8 67, label %4
    i8 68, label %4
    i8 69, label %4
    i8 70, label %4
    i8 71, label %4
    i8 72, label %4
    i8 73, label %4
    i8 76, label %4
    i8 77, label %4
    i8 80, label %4
    i8 81, label %4
    i8 82, label %4
    i8 83, label %4
    i8 84, label %4
    i8 85, label %4
    i8 86, label %4
    i8 87, label %4
    i8 88, label %4
    i8 89, label %4
    i8 92, label %4
    i8 93, label %4
    i8 96, label %4
    i8 97, label %4
    i8 100, label %4
    i8 101, label %4
    i8 104, label %4
    i8 105, label %4
    i8 108, label %4
    i8 109, label %4
    i8 112, label %4
    i8 113, label %4
    i8 116, label %4
    i8 117, label %4
    i8 120, label %4
    i8 121, label %4
    i8 124, label %4
    i8 125, label %4
  ]

2:                                                ; preds = %1
  %3 = icmp sgt i8 %0, -1
  br label %4

4:                                                ; preds = %1, %1, %1, %1, %1, %1, %1, %1, %1, %1, %1, %1, %1, %1, %1, %1, %1, %1, %1, %1, %1, %1, %1, %1, %1, %1, %1, %1, %1, %1, %1, %1, %1, %1, %1, %1, %1, %1, %1, %1, %1, %1, %1, %1, %1, %1, %1, %1, %1, %1, %1, %1, %1, %1, %1, %1, %2
  %.0 = phi i1 [ %3, %2 ], [ false, %1 ], [ false, %1 ], [ false, %1 ], [ false, %1 ], [ false, %1 ], [ false, %1 ], [ false, %1 ], [ false, %1 ], [ false, %1 ], [ false, %1 ], [ false, %1 ], [ false, %1 ], [ false, %1 ], [ false, %1 ], [ false, %1 ], [ false, %1 ], [ false, %1 ], [ false, %1 ], [ false, %1 ], [ false, %1 ], [ false, %1 ], [ false, %1 ], [ false, %1 ], [ false, %1 ], [ false, %1 ], [ false, %1 ], [ false, %1 ], [ false, %1 ], [ false, %1 ], [ false, %1 ], [ false, %1 ], [ false, %1 ], [ false, %1 ], [ false, %1 ], [ false, %1 ], [ false, %1 ], [ false, %1 ], [ false, %1 ], [ false, %1 ], [ false, %1 ], [ false, %1 ], [ false, %1 ], [ false, %1 ], [ false, %1 ], [ false, %1 ], [ false, %1 ], [ false, %1 ], [ false, %1 ], [ false, %1 ], [ false, %1 ], [ false, %1 ], [ false, %1 ], [ false, %1 ], [ false, %1 ], [ false, %1 ], [ false, %1 ]
  ret i1 %.0
}